; Function Attrs: nounwind uwtable
define ptr @Gia_ManTransformFlops(ptr noundef %0, ptr noundef readonly captures(none) %1, ptr noundef readonly captures(none) %2) local_unnamed_addr #0 {
  %4 = getelementptr i8, ptr %0, i64 16
  %.val = load i32, ptr %4, align 8, !tbaa !3
  %5 = ashr i32 %.val, 5
  %6 = and i32 %.val, 31
  %7 = icmp ne i32 %6, 0
  %8 = zext i1 %7 to i32
  %9 = add nsw i32 %5, %8
  %.not.i.i = icmp eq i32 %9, 0
  br i1 %.not.i.i, label %Vec_BitStart.exit, label %10

10:                                               ; preds = %3
  %11 = sext i32 %9 to i64
  %12 = shl nsw i64 %11, 2
  %13 = tail call noalias ptr @malloc(i64 noundef %12) #16
  br label %Vec_BitStart.exit

Vec_BitStart.exit:                                ; preds = %3, %10
  %.pre-phi8.i = phi i64 [ %12, %10 ], [ 0, %3 ]
  %14 = phi ptr [ %13, %10 ], [ null, %3 ]
  tail call void @llvm.memset.p0.i64(ptr align 4 %14, i8 0, i64 %.pre-phi8.i, i1 false)
  %15 = getelementptr i8, ptr %1, i64 4
  %.val17 = load i32, ptr %15, align 4, !tbaa !29
  %16 = icmp sgt i32 %.val17, 0
  br i1 %16, label %.lr.ph, label %.critedge

.lr.ph:                                           ; preds = %Vec_BitStart.exit
  %17 = getelementptr i8, ptr %1, i64 8
  %.val21 = load ptr, ptr %17, align 8, !tbaa !36
  %18 = getelementptr i8, ptr %0, i64 32
  %.val22 = load ptr, ptr %18, align 8, !tbaa !37
  %.not = icmp eq ptr %.val22, null
  %19 = getelementptr i8, ptr %0, i64 64
  br i1 %.not, label %.critedge, label %.lr.ph.split

.lr.ph.split:                                     ; preds = %.lr.ph
  %20 = getelementptr i8, ptr %2, i64 8
  %.val20 = load ptr, ptr %20, align 8, !tbaa !36
  %wide.trip.count = zext nneg i32 %.val17 to i64
  br label %21

21:                                               ; preds = %.lr.ph.split, %42
  %indvars.iv = phi i64 [ 0, %.lr.ph.split ], [ %indvars.iv.next, %42 ]
  %22 = getelementptr inbounds nuw i32, ptr %.val20, i64 %indvars.iv
  %23 = load i32, ptr %22, align 4, !tbaa !35
  %24 = icmp eq i32 %23, 0
  br i1 %24, label %42, label %25

25:                                               ; preds = %21
  %26 = getelementptr inbounds nuw i32, ptr %.val21, i64 %indvars.iv
  %27 = load i32, ptr %26, align 4, !tbaa !35
  %28 = sext i32 %27 to i64
  %29 = getelementptr inbounds %struct.Gia_Obj_t_, ptr %.val22, i64 %28
  %.val23 = load i64, ptr %29, align 4
  %30 = lshr i64 %.val23, 32
  %31 = trunc nuw i64 %30 to i32
  %32 = and i32 %31, 536870911
  %.val19 = load ptr, ptr %19, align 8, !tbaa !28
  %33 = getelementptr i8, ptr %.val19, i64 4
  %.val19.val = load i32, ptr %33, align 4, !tbaa !29
  %.neg = sub i32 %.val, %.val19.val
  %34 = add i32 %.neg, %32
  %35 = and i32 %34, 31
  %36 = shl nuw i32 1, %35
  %37 = ashr i32 %34, 5
  %38 = sext i32 %37 to i64
  %39 = getelementptr inbounds i32, ptr %14, i64 %38
  %40 = load i32, ptr %39, align 4, !tbaa !35
  %41 = or i32 %36, %40
  store i32 %41, ptr %39, align 4, !tbaa !35
  br label %42

42:                                               ; preds = %21, %25
  %indvars.iv.next = add nuw nsw i64 %indvars.iv, 1
  %exitcond.not = icmp eq i64 %indvars.iv.next, %wide.trip.count
  br i1 %exitcond.not, label %.critedge, label %21, !llvm.loop !77

.critedge:                                        ; preds = %42, %.lr.ph, %Vec_BitStart.exit
  %43 = tail call ptr @Gia_ManDupFlip(ptr noundef nonnull %0, ptr noundef %14) #14
  %.not.i = icmp eq ptr %14, null
  br i1 %.not.i, label %Vec_BitFree.exit, label %44

44:                                               ; preds = %.critedge
  tail call void @free(ptr noundef nonnull %14) #14
  br label %Vec_BitFree.exit

Vec_BitFree.exit:                                 ; preds = %.critedge, %44
  ret ptr %43
}